; Function Attrs: mustprogress uwtable
define internal noundef ptr @"_ZNSt17_Function_handlerIFPN7rocksdb10FileSystemERKNSt7__cxx1112basic_stringIcSt11char_traitsIcESaIcEEEPSt10unique_ptrIS1_St14default_deleteIS1_EEPS8_EZNS0_L26RegisterBuiltinFileSystemsERNS0_13ObjectLibraryESA_E3$_4E9_M_invokeERKSt9_Any_dataSA_OSF_OSG_"(ptr nonnull readnone align 8 captures(none) %0, ptr nonnull readnone align 8 captures(none) %1, ptr noundef nonnull readonly align 8 captures(none) dereferenceable(8) %2, ptr nonnull readnone align 8 captures(none) %3) #7 align 2 personality ptr @__gxx_personality_v0 {
  %.val = load ptr, ptr %2, align 8, !tbaa !355
  %5 = tail call noalias noundef nonnull dereferenceable(152) ptr @_Znwm(i64 noundef 152) #35
  %6 = invoke noundef nonnull align 8 dereferenceable(16) ptr @_ZN7rocksdb11SystemClock7DefaultEv()
          to label %7 unwind label %13

7:                                                ; preds = %4
  invoke void @_ZN7rocksdb14MockFileSystemC1ERKSt10shared_ptrINS_11SystemClockEEb(ptr noundef nonnull align 8 dereferenceable(145) %5, ptr noundef nonnull align 8 dereferenceable(16) %6, i1 noundef zeroext true)
          to label %8 unwind label %13

8:                                                ; preds = %7
  %9 = load ptr, ptr %.val, align 8, !tbaa !96
  store ptr %5, ptr %.val, align 8, !tbaa !96
  %.not.i.i.i.i.i = icmp eq ptr %9, null
  br i1 %.not.i.i.i.i.i, label %"_ZSt10__invoke_rIPN7rocksdb10FileSystemERZNS0_L26RegisterBuiltinFileSystemsERNS0_13ObjectLibraryERKNSt7__cxx1112basic_stringIcSt11char_traitsIcESaIcEEEE3$_4JSC_PSt10unique_ptrIS1_St14default_deleteIS1_EEPSA_EENSt9enable_ifIX16is_invocable_r_vIT_T0_DpT1_EESM_E4typeEOSN_DpOSO_.exit", label %_ZNKSt14default_deleteIN7rocksdb10FileSystemEEclEPS1_.exit.i.i.i.i.i

_ZNKSt14default_deleteIN7rocksdb10FileSystemEEclEPS1_.exit.i.i.i.i.i: ; preds = %8
  %10 = load ptr, ptr %9, align 8, !tbaa !18
  %11 = getelementptr inbounds nuw i8, ptr %10, i64 8
  %12 = load ptr, ptr %11, align 8
  tail call void %12(ptr noundef nonnull align 8 dereferenceable(32) %9) #33
  %.pre.i.i.i = load ptr, ptr %.val, align 8, !tbaa !96
  br label %"_ZSt10__invoke_rIPN7rocksdb10FileSystemERZNS0_L26RegisterBuiltinFileSystemsERNS0_13ObjectLibraryERKNSt7__cxx1112basic_stringIcSt11char_traitsIcESaIcEEEE3$_4JSC_PSt10unique_ptrIS1_St14default_deleteIS1_EEPSA_EENSt9enable_ifIX16is_invocable_r_vIT_T0_DpT1_EESM_E4typeEOSN_DpOSO_.exit"

13:                                               ; preds = %7, %4
  %14 = landingpad { ptr, i32 }
          cleanup
  tail call void @_ZdlPvm(ptr noundef nonnull %5, i64 noundef 152) #31
  resume { ptr, i32 } %14

"_ZSt10__invoke_rIPN7rocksdb10FileSystemERZNS0_L26RegisterBuiltinFileSystemsERNS0_13ObjectLibraryERKNSt7__cxx1112basic_stringIcSt11char_traitsIcESaIcEEEE3$_4JSC_PSt10unique_ptrIS1_St14default_deleteIS1_EEPSA_EENSt9enable_ifIX16is_invocable_r_vIT_T0_DpT1_EESM_E4typeEOSN_DpOSO_.exit": ; preds = %8, %_ZNKSt14default_deleteIN7rocksdb10FileSystemEEclEPS1_.exit.i.i.i.i.i
  %15 = phi ptr [ %5, %8 ], [ %.pre.i.i.i, %_ZNKSt14default_deleteIN7rocksdb10FileSystemEEclEPS1_.exit.i.i.i.i.i ]
  ret ptr %15
}